; ModuleID = '5/11.c'
source_filename = "5/11.c"
target datalayout = "e-m:e-p270:32:32-p271:32:32-p272:64:64-i64:64-f80:128-n8:16:32:64-S128"
target triple = "x86_64-pc-linux-gnu"

@.str = private unnamed_addr constant [4 x i8] c"%lf\00", align 1
@.str.1 = private unnamed_addr constant [3 x i8] c"%s\00", align 1
@.str.2 = private unnamed_addr constant [6 x i8] c"error\00", align 1
@.str.3 = private unnamed_addr constant [4 x i8] c"yes\00", align 1
@.str.4 = private unnamed_addr constant [3 x i8] c"no\00", align 1

; Function Attrs: noinline nounwind uwtable
define dso_local i32 @main() #0 {
  %1 = alloca i32, align 4
  %2 = alloca [501 x i8], align 16
  %3 = alloca [501 x i8], align 16
  %4 = alloca i32, align 4
  %5 = alloca i32, align 4
  %6 = alloca i32, align 4
  %7 = alloca i32, align 4
  %8 = alloca i32, align 4
  %9 = alloca i32, align 4
  %10 = alloca i32, align 4
  %11 = alloca i32, align 4
  %12 = alloca double, align 8
  %13 = alloca double, align 8
  store i32 0, i32* %1, align 4
  store i32 0, i32* %10, align 4
  store i32 0, i32* %11, align 4
  %14 = call i32 (i8*, ...) @__isoc99_scanf(i8* getelementptr inbounds ([4 x i8], [4 x i8]* @.str, i64 0, i64 0), double* %12)
  %15 = getelementptr inbounds [501 x i8], [501 x i8]* %2, i64 0, i64 0
  %16 = call i32 (i8*, ...) @__isoc99_scanf(i8* getelementptr inbounds ([3 x i8], [3 x i8]* @.str.1, i64 0, i64 0), i8* %15)
  %17 = getelementptr inbounds [501 x i8], [501 x i8]* %3, i64 0, i64 0
  %18 = call i32 (i8*, ...) @__isoc99_scanf(i8* getelementptr inbounds ([3 x i8], [3 x i8]* @.str.1, i64 0, i64 0), i8* %17)
  %19 = getelementptr inbounds [501 x i8], [501 x i8]* %2, i64 0, i64 0
  %20 = call i64 @strlen(i8* %19) #3
  %21 = trunc i64 %20 to i32
  store i32 %21, i32* %4, align 4
  %22 = getelementptr inbounds [501 x i8], [501 x i8]* %3, i64 0, i64 0
  %23 = call i64 @strlen(i8* %22) #3
  %24 = trunc i64 %23 to i32
  store i32 %24, i32* %5, align 4
  %25 = load i32, i32* %4, align 4
  %26 = load i32, i32* %5, align 4
  %27 = icmp ne i32 %25, %26
  br i1 %27, label %28, label %30

28:                                               ; preds = %0
  %29 = call i32 (i8*, ...) @printf(i8* getelementptr inbounds ([6 x i8], [6 x i8]* @.str.2, i64 0, i64 0))
  store i32 1, i32* %11, align 4
  store i32 0, i32* %1, align 4
  br label %155

30:                                               ; preds = %0
  store i32 0, i32* %7, align 4
  br label %31

31:                                               ; preds = %66, %30
  %32 = load i32, i32* %7, align 4
  %33 = load i32, i32* %4, align 4
  %34 = icmp slt i32 %32, %33
  br i1 %34, label %35, label %69

35:                                               ; preds = %31
  %36 = load i32, i32* %7, align 4
  %37 = sext i32 %36 to i64
  %38 = getelementptr inbounds [501 x i8], [501 x i8]* %2, i64 0, i64 %37
  %39 = load i8, i8* %38, align 1
  %40 = sext i8 %39 to i32
  %41 = icmp ne i32 %40, 65
  br i1 %41, label %42, label %65

42:                                               ; preds = %35
  %43 = load i32, i32* %7, align 4
  %44 = sext i32 %43 to i64
  %45 = getelementptr inbounds [501 x i8], [501 x i8]* %2, i64 0, i64 %44
  %46 = load i8, i8* %45, align 1
  %47 = sext i8 %46 to i32
  %48 = icmp ne i32 %47, 84
  br i1 %48, label %49, label %65

49:                                               ; preds = %42
  %50 = load i32, i32* %7, align 4
  %51 = sext i32 %50 to i64
  %52 = getelementptr inbounds [501 x i8], [501 x i8]* %2, i64 0, i64 %51
  %53 = load i8, i8* %52, align 1
  %54 = sext i8 %53 to i32
  %55 = icmp ne i32 %54, 71
  br i1 %55, label %56, label %65

56:                                               ; preds = %49
  %57 = load i32, i32* %7, align 4
  %58 = sext i32 %57 to i64
  %59 = getelementptr inbounds [501 x i8], [501 x i8]* %2, i64 0, i64 %58
  %60 = load i8, i8* %59, align 1
  %61 = sext i8 %60 to i32
  %62 = icmp ne i32 %61, 67
  br i1 %62, label %63, label %65

63:                                               ; preds = %56
  %64 = call i32 (i8*, ...) @printf(i8* getelementptr inbounds ([6 x i8], [6 x i8]* @.str.2, i64 0, i64 0))
  store i32 1, i32* %11, align 4
  store i32 0, i32* %1, align 4
  br label %155

65:                                               ; preds = %56, %49, %42, %35
  br label %66

66:                                               ; preds = %65
  %67 = load i32, i32* %7, align 4
  %68 = add nsw i32 %67, 1
  store i32 %68, i32* %7, align 4
  br label %31

69:                                               ; preds = %31
  store i32 0, i32* %7, align 4
  br label %70

70:                                               ; preds = %105, %69
  %71 = load i32, i32* %7, align 4
  %72 = load i32, i32* %5, align 4
  %73 = icmp slt i32 %71, %72
  br i1 %73, label %74, label %108

74:                                               ; preds = %70
  %75 = load i32, i32* %7, align 4
  %76 = sext i32 %75 to i64
  %77 = getelementptr inbounds [501 x i8], [501 x i8]* %3, i64 0, i64 %76
  %78 = load i8, i8* %77, align 1
  %79 = sext i8 %78 to i32
  %80 = icmp ne i32 %79, 65
  br i1 %80, label %81, label %104

81:                                               ; preds = %74
  %82 = load i32, i32* %7, align 4
  %83 = sext i32 %82 to i64
  %84 = getelementptr inbounds [501 x i8], [501 x i8]* %3, i64 0, i64 %83
  %85 = load i8, i8* %84, align 1
  %86 = sext i8 %85 to i32
  %87 = icmp ne i32 %86, 84
  br i1 %87, label %88, label %104

88:                                               ; preds = %81
  %89 = load i32, i32* %7, align 4
  %90 = sext i32 %89 to i64
  %91 = getelementptr inbounds [501 x i8], [501 x i8]* %3, i64 0, i64 %90
  %92 = load i8, i8* %91, align 1
  %93 = sext i8 %92 to i32
  %94 = icmp ne i32 %93, 71
  br i1 %94, label %95, label %104

95:                                               ; preds = %88
  %96 = load i32, i32* %7, align 4
  %97 = sext i32 %96 to i64
  %98 = getelementptr inbounds [501 x i8], [501 x i8]* %3, i64 0, i64 %97
  %99 = load i8, i8* %98, align 1
  %100 = sext i8 %99 to i32
  %101 = icmp ne i32 %100, 67
  br i1 %101, label %102, label %104

102:                                              ; preds = %95
  %103 = call i32 (i8*, ...) @printf(i8* getelementptr inbounds ([6 x i8], [6 x i8]* @.str.2, i64 0, i64 0))
  store i32 1, i32* %11, align 4
  store i32 0, i32* %1, align 4
  br label %155

104:                                              ; preds = %95, %88, %81, %74
  br label %105

105:                                              ; preds = %104
  %106 = load i32, i32* %7, align 4
  %107 = add nsw i32 %106, 1
  store i32 %107, i32* %7, align 4
  br label %70

108:                                              ; preds = %70
  %109 = load i32, i32* %11, align 4
  %110 = icmp eq i32 %109, 0
  br i1 %110, label %111, label %136

111:                                              ; preds = %108
  store i32 0, i32* %7, align 4
  br label %112

112:                                              ; preds = %132, %111
  %113 = load i32, i32* %7, align 4
  %114 = load i32, i32* %4, align 4
  %115 = icmp slt i32 %113, %114
  br i1 %115, label %116, label %135

116:                                              ; preds = %112
  %117 = load i32, i32* %7, align 4
  %118 = sext i32 %117 to i64
  %119 = getelementptr inbounds [501 x i8], [501 x i8]* %2, i64 0, i64 %118
  %120 = load i8, i8* %119, align 1
  %121 = sext i8 %120 to i32
  %122 = load i32, i32* %7, align 4
  %123 = sext i32 %122 to i64
  %124 = getelementptr inbounds [501 x i8], [501 x i8]* %3, i64 0, i64 %123
  %125 = load i8, i8* %124, align 1
  %126 = sext i8 %125 to i32
  %127 = icmp eq i32 %121, %126
  br i1 %127, label %128, label %131

128:                                              ; preds = %116
  %129 = load i32, i32* %10, align 4
  %130 = add nsw i32 %129, 1
  store i32 %130, i32* %10, align 4
  br label %131

131:                                              ; preds = %128, %116
  br label %132

132:                                              ; preds = %131
  %133 = load i32, i32* %7, align 4
  %134 = add nsw i32 %133, 1
  store i32 %134, i32* %7, align 4
  br label %112

135:                                              ; preds = %112
  br label %136

136:                                              ; preds = %135, %108
  %137 = load i32, i32* %11, align 4
  %138 = icmp eq i32 %137, 0
  br i1 %138, label %139, label %153

139:                                              ; preds = %136
  %140 = load i32, i32* %10, align 4
  %141 = sitofp i32 %140 to double
  %142 = load i32, i32* %4, align 4
  %143 = sitofp i32 %142 to double
  %144 = fdiv double %141, %143
  store double %144, double* %13, align 8
  %145 = load double, double* %13, align 8
  %146 = load double, double* %12, align 8
  %147 = fcmp ogt double %145, %146
  br i1 %147, label %148, label %150

148:                                              ; preds = %139
  %149 = call i32 (i8*, ...) @printf(i8* getelementptr inbounds ([4 x i8], [4 x i8]* @.str.3, i64 0, i64 0))
  br label %152

150:                                              ; preds = %139
  %151 = call i32 (i8*, ...) @printf(i8* getelementptr inbounds ([3 x i8], [3 x i8]* @.str.4, i64 0, i64 0))
  br label %152

152:                                              ; preds = %150, %148
  br label %153

153:                                              ; preds = %152, %136
  br label %154

154:                                              ; preds = %153
  store i32 0, i32* %1, align 4
  br label %155

155:                                              ; preds = %154, %102, %63, %28
  %156 = load i32, i32* %1, align 4
  ret i32 %156
}

declare dso_local i32 @__isoc99_scanf(i8*, ...) #1

; Function Attrs: nounwind readonly
declare dso_local i64 @strlen(i8*) #2

declare dso_local i32 @printf(i8*, ...) #1


!llvm.module.flags = !{!0}
!llvm.ident = !{!1}

!0 = !{i32 1, !"wchar_size", i32 4}
!1 = !{!"clang version 10.0.0-4ubuntu1 "}
