; ModuleID = 'source-C-CXX/4/11.c'
source_filename = "source-C-CXX/4/11.c"
target datalayout = "e-m:e-p270:32:32-p271:32:32-p272:64:64-i64:64-f80:128-n8:16:32:64-S128"
target triple = "x86_64-pc-linux-gnu"

@.str = private unnamed_addr constant [4 x i8] c"%lf\00", align 1
@.str.1 = private unnamed_addr constant [3 x i8] c"%s\00", align 1
@.str.2 = private unnamed_addr constant [6 x i8] c"error\00", align 1
@.str.3 = private unnamed_addr constant [4 x i8] c"yes\00", align 1
@.str.4 = private unnamed_addr constant [3 x i8] c"no\00", align 1

; Function Attrs: nofree nounwind sspstrong uwtable
define dso_local i32 @main() local_unnamed_addr #0 {
  %1 = alloca [501 x i8], align 16
  %2 = alloca [501 x i8], align 16
  %3 = alloca double, align 8
  %4 = getelementptr inbounds [501 x i8], [501 x i8]* %1, i64 0, i64 0
  call void @llvm.lifetime.start.p0i8(i64 501, i8* nonnull %4) #5
  %5 = getelementptr inbounds [501 x i8], [501 x i8]* %2, i64 0, i64 0
  call void @llvm.lifetime.start.p0i8(i64 501, i8* nonnull %5) #5
  %6 = bitcast double* %3 to i8*
  call void @llvm.lifetime.start.p0i8(i64 8, i8* nonnull %6) #5
  %7 = call i32 (i8*, ...) @__isoc99_scanf(i8* getelementptr inbounds ([4 x i8], [4 x i8]* @.str, i64 0, i64 0), double* nonnull %3)
  %8 = call i32 (i8*, ...) @__isoc99_scanf(i8* getelementptr inbounds ([3 x i8], [3 x i8]* @.str.1, i64 0, i64 0), i8* nonnull %4)
  %9 = call i32 (i8*, ...) @__isoc99_scanf(i8* getelementptr inbounds ([3 x i8], [3 x i8]* @.str.1, i64 0, i64 0), i8* nonnull %5)
  %10 = call i64 @strlen(i8* noundef nonnull %4) #6
  %11 = trunc i64 %10 to i32
  %12 = call i64 @strlen(i8* noundef nonnull %5) #6
  %13 = trunc i64 %12 to i32
  %14 = icmp eq i32 %11, %13
  br i1 %14, label %15, label %96

15:                                               ; preds = %0
  %16 = icmp sgt i32 %11, 0
  br i1 %16, label %17, label %89

17:                                               ; preds = %15
  %18 = and i64 %10, 4294967295
  br label %22

19:                                               ; preds = %26
  br i1 %16, label %20, label %89

20:                                               ; preds = %19
  %21 = and i64 %10, 4294967295
  br label %67

22:                                               ; preds = %17, %26
  %23 = phi i64 [ 0, %17 ], [ %27, %26 ]
  %24 = getelementptr inbounds [501 x i8], [501 x i8]* %1, i64 0, i64 %23
  %25 = load i8, i8* %24, align 1, !tbaa !5
  switch i8 %25, label %96 [
    i8 65, label %26
    i8 84, label %26
    i8 71, label %26
    i8 67, label %26
  ]

26:                                               ; preds = %22, %22, %22, %22
  %27 = add nuw nsw i64 %23, 1
  %28 = icmp eq i64 %27, %18
  br i1 %28, label %19, label %22, !llvm.loop !8

29:                                               ; preds = %71
  br i1 %16, label %30, label %89

30:                                               ; preds = %29
  %31 = and i64 %10, 4294967295
  %32 = icmp ult i64 %31, 8
  br i1 %32, label %64, label %33

33:                                               ; preds = %30
  %34 = and i64 %10, 7
  %35 = sub nsw i64 %31, %34
  br label %36

36:                                               ; preds = %36, %33
  %37 = phi i64 [ 0, %33 ], [ %58, %36 ]
  %38 = phi <4 x i32> [ zeroinitializer, %33 ], [ %56, %36 ]
  %39 = phi <4 x i32> [ zeroinitializer, %33 ], [ %57, %36 ]
  %40 = getelementptr inbounds [501 x i8], [501 x i8]* %1, i64 0, i64 %37
  %41 = bitcast i8* %40 to <4 x i8>*
  %42 = load <4 x i8>, <4 x i8>* %41, align 8, !tbaa !5
  %43 = getelementptr inbounds i8, i8* %40, i64 4
  %44 = bitcast i8* %43 to <4 x i8>*
  %45 = load <4 x i8>, <4 x i8>* %44, align 4, !tbaa !5
  %46 = getelementptr inbounds [501 x i8], [501 x i8]* %2, i64 0, i64 %37
  %47 = bitcast i8* %46 to <4 x i8>*
  %48 = load <4 x i8>, <4 x i8>* %47, align 8, !tbaa !5
  %49 = getelementptr inbounds i8, i8* %46, i64 4
  %50 = bitcast i8* %49 to <4 x i8>*
  %51 = load <4 x i8>, <4 x i8>* %50, align 4, !tbaa !5
  %52 = icmp eq <4 x i8> %42, %48
  %53 = icmp eq <4 x i8> %45, %51
  %54 = zext <4 x i1> %52 to <4 x i32>
  %55 = zext <4 x i1> %53 to <4 x i32>
  %56 = add <4 x i32> %38, %54
  %57 = add <4 x i32> %39, %55
  %58 = add nuw i64 %37, 8
  %59 = icmp eq i64 %58, %35
  br i1 %59, label %60, label %36, !llvm.loop !10

60:                                               ; preds = %36
  %61 = add <4 x i32> %57, %56
  %62 = call i32 @llvm.vector.reduce.add.v4i32(<4 x i32> %61)
  %63 = icmp eq i64 %34, 0
  br i1 %63, label %86, label %64

64:                                               ; preds = %30, %60
  %65 = phi i64 [ 0, %30 ], [ %35, %60 ]
  %66 = phi i32 [ 0, %30 ], [ %62, %60 ]
  br label %74

67:                                               ; preds = %20, %71
  %68 = phi i64 [ 0, %20 ], [ %72, %71 ]
  %69 = getelementptr inbounds [501 x i8], [501 x i8]* %2, i64 0, i64 %68
  %70 = load i8, i8* %69, align 1, !tbaa !5
  switch i8 %70, label %96 [
    i8 65, label %71
    i8 84, label %71
    i8 71, label %71
    i8 67, label %71
  ]

71:                                               ; preds = %67, %67, %67, %67
  %72 = add nuw nsw i64 %68, 1
  %73 = icmp eq i64 %72, %21
  br i1 %73, label %29, label %67, !llvm.loop !12

74:                                               ; preds = %64, %74
  %75 = phi i64 [ %84, %74 ], [ %65, %64 ]
  %76 = phi i32 [ %83, %74 ], [ %66, %64 ]
  %77 = getelementptr inbounds [501 x i8], [501 x i8]* %1, i64 0, i64 %75
  %78 = load i8, i8* %77, align 1, !tbaa !5
  %79 = getelementptr inbounds [501 x i8], [501 x i8]* %2, i64 0, i64 %75
  %80 = load i8, i8* %79, align 1, !tbaa !5
  %81 = icmp eq i8 %78, %80
  %82 = zext i1 %81 to i32
  %83 = add nuw nsw i32 %76, %82
  %84 = add nuw nsw i64 %75, 1
  %85 = icmp eq i64 %84, %31
  br i1 %85, label %86, label %74, !llvm.loop !13

86:                                               ; preds = %74, %60
  %87 = phi i32 [ %62, %60 ], [ %83, %74 ]
  %88 = sitofp i32 %87 to double
  br label %89

89:                                               ; preds = %15, %19, %86, %29
  %90 = phi double [ 0.000000e+00, %29 ], [ %88, %86 ], [ 0.000000e+00, %19 ], [ 0.000000e+00, %15 ]
  %91 = sitofp i32 %11 to double
  %92 = fdiv double %90, %91
  %93 = load double, double* %3, align 8, !tbaa !15
  %94 = fcmp ogt double %92, %93
  %95 = select i1 %94, i8* getelementptr inbounds ([4 x i8], [4 x i8]* @.str.3, i64 0, i64 0), i8* getelementptr inbounds ([3 x i8], [3 x i8]* @.str.4, i64 0, i64 0)
  br label %96

96:                                               ; preds = %22, %67, %89, %0
  %97 = phi i8* [ getelementptr inbounds ([6 x i8], [6 x i8]* @.str.2, i64 0, i64 0), %0 ], [ %95, %89 ], [ getelementptr inbounds ([6 x i8], [6 x i8]* @.str.2, i64 0, i64 0), %67 ], [ getelementptr inbounds ([6 x i8], [6 x i8]* @.str.2, i64 0, i64 0), %22 ]
  %98 = call i32 (i8*, ...) @printf(i8* nonnull dereferenceable(1) %97)
  call void @llvm.lifetime.end.p0i8(i64 8, i8* nonnull %6) #5
  call void @llvm.lifetime.end.p0i8(i64 501, i8* nonnull %5) #5
  call void @llvm.lifetime.end.p0i8(i64 501, i8* nonnull %4) #5
  ret i32 0
}

; Function Attrs: argmemonly mustprogress nofree nosync nounwind willreturn
declare void @llvm.lifetime.start.p0i8(i64 immarg, i8* nocapture) #1

; Function Attrs: nofree nounwind
declare noundef i32 @__isoc99_scanf(i8* nocapture noundef readonly, ...) local_unnamed_addr #2

; Function Attrs: argmemonly mustprogress nofree nounwind readonly willreturn
declare i64 @strlen(i8* nocapture) local_unnamed_addr #3

; Function Attrs: nofree nounwind
declare noundef i32 @printf(i8* nocapture noundef readonly, ...) local_unnamed_addr #2

; Function Attrs: argmemonly mustprogress nofree nosync nounwind willreturn
declare void @llvm.lifetime.end.p0i8(i64 immarg, i8* nocapture) #1

; Function Attrs: nofree nosync nounwind readnone willreturn
declare i32 @llvm.vector.reduce.add.v4i32(<4 x i32>) #4


!llvm.module.flags = !{!0, !1, !2, !3}
!llvm.ident = !{!4}

!0 = !{i32 1, !"wchar_size", i32 4}
!1 = !{i32 7, !"PIC Level", i32 2}
!2 = !{i32 7, !"PIE Level", i32 2}
!3 = !{i32 7, !"uwtable", i32 1}
!4 = !{!"clang version 13.0.0"}
!5 = !{!6, !6, i64 0}
!6 = !{!"omnipotent char", !7, i64 0}
!7 = !{!"Simple C/C++ TBAA"}
!8 = distinct !{!8, !9}
!9 = !{!"llvm.loop.mustprogress"}
!10 = distinct !{!10, !9, !11}
!11 = !{!"llvm.loop.isvectorized", i32 1}
!12 = distinct !{!12, !9}
!13 = distinct !{!13, !9, !14, !11}
!14 = !{!"llvm.loop.unroll.runtime.disable"}
!15 = !{!16, !16, i64 0}
!16 = !{!"double", !6, i64 0}
